; Function Attrs: mustprogress nounwind uwtable
define dso_local void @_ZN4llvm8codeview23limitSymbolArrayToScopeERKNS_14VarStreamArrayINS0_8CVRecordINS0_10SymbolKindEEENS_23VarStreamArrayExtractorIS4_EEEEj(ptr dead_on_unwind noalias writable sret(%"class.llvm::VarStreamArray") align 8 %0, ptr noundef nonnull align 8 dereferenceable(56) %1, i32 noundef %2) local_unnamed_addr #0 {
  %4 = alloca %"class.llvm::codeview::CVRecord", align 8
  %5 = alloca %"class.llvm::VarStreamArrayIterator", align 8
  %6 = alloca %"class.llvm::VarStreamArrayIterator", align 8
  %7 = getelementptr inbounds i8, ptr %1, i64 48
  call void @_ZN4llvm22VarStreamArrayIteratorINS_8codeview8CVRecordINS1_10SymbolKindEEENS_23VarStreamArrayExtractorIS4_EEEC2ERKNS_14VarStreamArrayIS4_S6_EERKS6_jPb(ptr noundef nonnull align 8 dereferenceable(104) %5, ptr noundef nonnull align 8 dereferenceable(56) %1, ptr noundef nonnull align 1 dereferenceable(1) %7, i32 noundef %2, ptr noundef null)
  call void @llvm.memcpy.p0.p0.i64(ptr noundef nonnull align 8 dereferenceable(16) %4, ptr noundef nonnull align 8 dereferenceable(16) %5, i64 16, i1 false)
  %8 = getelementptr inbounds i8, ptr %5, i64 24
  %9 = load ptr, ptr %8, align 8
  %.not.i.i.i.i.i.i = icmp eq ptr %9, null
  br i1 %.not.i.i.i.i.i.i, label %_ZN4llvm22VarStreamArrayIteratorINS_8codeview8CVRecordINS1_10SymbolKindEEENS_23VarStreamArrayExtractorIS4_EEED2Ev.exit, label %10

10:                                               ; preds = %3
  %11 = getelementptr inbounds nuw i8, ptr %9, i64 8
  %12 = load atomic i64, ptr %11 acquire, align 8
  %13 = icmp eq i64 %12, 4294967297
  %14 = trunc i64 %12 to i32
  br i1 %13, label %15, label %20

15:                                               ; preds = %10
  store i32 0, ptr %11, align 8
  %16 = getelementptr inbounds nuw i8, ptr %9, i64 12
  store i32 0, ptr %16, align 4
  %17 = load ptr, ptr %9, align 8
  %18 = getelementptr inbounds i8, ptr %17, i64 16
  %19 = load ptr, ptr %18, align 8
  call void %19(ptr noundef nonnull align 8 dereferenceable(16) %9) #14
  br label %_ZNSt16_Sp_counted_baseILN9__gnu_cxx12_Lock_policyE2EE24_M_release_last_use_coldEv.exit.sink.split.i.i.i.i.i.i.i

20:                                               ; preds = %10
  %21 = load i8, ptr @__libc_single_threaded, align 1
  %.not.i.i.i.i.i.i.i = icmp eq i8 %21, 0
  br i1 %.not.i.i.i.i.i.i.i, label %24, label %22

22:                                               ; preds = %20
  %23 = add nsw i32 %14, -1
  store i32 %23, ptr %11, align 4
  br label %26

24:                                               ; preds = %20
  %25 = atomicrmw volatile add ptr %11, i32 -1 acq_rel, align 4
  br label %26

26:                                               ; preds = %24, %22
  %.0.i.i.i.i.i.i.i = phi i32 [ %14, %22 ], [ %25, %24 ]
  %27 = icmp eq i32 %.0.i.i.i.i.i.i.i, 1
  br i1 %27, label %28, label %_ZN4llvm22VarStreamArrayIteratorINS_8codeview8CVRecordINS1_10SymbolKindEEENS_23VarStreamArrayExtractorIS4_EEED2Ev.exit

28:                                               ; preds = %26
  %29 = load ptr, ptr %9, align 8
  %30 = getelementptr inbounds i8, ptr %29, i64 16
  %31 = load ptr, ptr %30, align 8
  call void %31(ptr noundef nonnull align 8 dereferenceable(16) %9) #14
  %32 = getelementptr inbounds nuw i8, ptr %9, i64 12
  %33 = load i8, ptr @__libc_single_threaded, align 1
  %.not.i.i.i.i.i.i.i.i.i = icmp eq i8 %33, 0
  br i1 %.not.i.i.i.i.i.i.i.i.i, label %37, label %34

34:                                               ; preds = %28
  %35 = load i32, ptr %32, align 4
  %36 = add nsw i32 %35, -1
  store i32 %36, ptr %32, align 4
  br label %39

37:                                               ; preds = %28
  %38 = atomicrmw volatile add ptr %32, i32 -1 acq_rel, align 4
  br label %39

39:                                               ; preds = %37, %34
  %.0.i.i.i.i.i.i.i.i.i = phi i32 [ %35, %34 ], [ %38, %37 ]
  %40 = icmp eq i32 %.0.i.i.i.i.i.i.i.i.i, 1
  br i1 %40, label %_ZNSt16_Sp_counted_baseILN9__gnu_cxx12_Lock_policyE2EE24_M_release_last_use_coldEv.exit.sink.split.i.i.i.i.i.i.i, label %_ZN4llvm22VarStreamArrayIteratorINS_8codeview8CVRecordINS1_10SymbolKindEEENS_23VarStreamArrayExtractorIS4_EEED2Ev.exit

_ZNSt16_Sp_counted_baseILN9__gnu_cxx12_Lock_policyE2EE24_M_release_last_use_coldEv.exit.sink.split.i.i.i.i.i.i.i: ; preds = %39, %15
  %41 = load ptr, ptr %9, align 8
  %42 = getelementptr inbounds i8, ptr %41, i64 24
  %43 = load ptr, ptr %42, align 8
  call void %43(ptr noundef nonnull align 8 dereferenceable(16) %9) #14
  br label %_ZN4llvm22VarStreamArrayIteratorINS_8codeview8CVRecordINS1_10SymbolKindEEENS_23VarStreamArrayExtractorIS4_EEED2Ev.exit

_ZN4llvm22VarStreamArrayIteratorINS_8codeview8CVRecordINS1_10SymbolKindEEENS_23VarStreamArrayExtractorIS4_EEED2Ev.exit: ; preds = %3, %26, %39, %_ZNSt16_Sp_counted_baseILN9__gnu_cxx12_Lock_policyE2EE24_M_release_last_use_coldEv.exit.sink.split.i.i.i.i.i.i.i
  %44 = call noundef i32 @_ZN4llvm8codeview17getScopeEndOffsetERKNS0_8CVRecordINS0_10SymbolKindEEE(ptr noundef nonnull align 8 dereferenceable(16) %4)
  call void @_ZN4llvm22VarStreamArrayIteratorINS_8codeview8CVRecordINS1_10SymbolKindEEENS_23VarStreamArrayExtractorIS4_EEEC2ERKNS_14VarStreamArrayIS4_S6_EERKS6_jPb(ptr noundef nonnull align 8 dereferenceable(104) %6, ptr noundef nonnull align 8 dereferenceable(56) %1, ptr noundef nonnull align 1 dereferenceable(1) %7, i32 noundef %44, ptr noundef null)
  %.sroa.1.0..sroa_idx = getelementptr inbounds i8, ptr %6, i64 8
  %.sroa.1.0.copyload = load i64, ptr %.sroa.1.0..sroa_idx, align 8
  %45 = getelementptr inbounds i8, ptr %6, i64 24
  %46 = load ptr, ptr %45, align 8
  %.not.i.i.i.i.i.i7 = icmp eq ptr %46, null
  br i1 %.not.i.i.i.i.i.i7, label %_ZN4llvm22VarStreamArrayIteratorINS_8codeview8CVRecordINS1_10SymbolKindEEENS_23VarStreamArrayExtractorIS4_EEED2Ev.exit13, label %47

47:                                               ; preds = %_ZN4llvm22VarStreamArrayIteratorINS_8codeview8CVRecordINS1_10SymbolKindEEENS_23VarStreamArrayExtractorIS4_EEED2Ev.exit
  %48 = getelementptr inbounds nuw i8, ptr %46, i64 8
  %49 = load atomic i64, ptr %48 acquire, align 8
  %50 = icmp eq i64 %49, 4294967297
  %51 = trunc i64 %49 to i32
  br i1 %50, label %52, label %57

52:                                               ; preds = %47
  store i32 0, ptr %48, align 8
  %53 = getelementptr inbounds nuw i8, ptr %46, i64 12
  store i32 0, ptr %53, align 4
  %54 = load ptr, ptr %46, align 8
  %55 = getelementptr inbounds i8, ptr %54, i64 16
  %56 = load ptr, ptr %55, align 8
  call void %56(ptr noundef nonnull align 8 dereferenceable(16) %46) #14
  br label %_ZNSt16_Sp_counted_baseILN9__gnu_cxx12_Lock_policyE2EE24_M_release_last_use_coldEv.exit.sink.split.i.i.i.i.i.i.i12

57:                                               ; preds = %47
  %58 = load i8, ptr @__libc_single_threaded, align 1
  %.not.i.i.i.i.i.i.i8 = icmp eq i8 %58, 0
  br i1 %.not.i.i.i.i.i.i.i8, label %61, label %59

59:                                               ; preds = %57
  %60 = add nsw i32 %51, -1
  store i32 %60, ptr %48, align 4
  br label %63

61:                                               ; preds = %57
  %62 = atomicrmw volatile add ptr %48, i32 -1 acq_rel, align 4
  br label %63

63:                                               ; preds = %61, %59
  %.0.i.i.i.i.i.i.i9 = phi i32 [ %51, %59 ], [ %62, %61 ]
  %64 = icmp eq i32 %.0.i.i.i.i.i.i.i9, 1
  br i1 %64, label %65, label %_ZN4llvm22VarStreamArrayIteratorINS_8codeview8CVRecordINS1_10SymbolKindEEENS_23VarStreamArrayExtractorIS4_EEED2Ev.exit13

65:                                               ; preds = %63
  %66 = load ptr, ptr %46, align 8
  %67 = getelementptr inbounds i8, ptr %66, i64 16
  %68 = load ptr, ptr %67, align 8
  call void %68(ptr noundef nonnull align 8 dereferenceable(16) %46) #14
  %69 = getelementptr inbounds nuw i8, ptr %46, i64 12
  %70 = load i8, ptr @__libc_single_threaded, align 1
  %.not.i.i.i.i.i.i.i.i.i10 = icmp eq i8 %70, 0
  br i1 %.not.i.i.i.i.i.i.i.i.i10, label %74, label %71

71:                                               ; preds = %65
  %72 = load i32, ptr %69, align 4
  %73 = add nsw i32 %72, -1
  store i32 %73, ptr %69, align 4
  br label %76

74:                                               ; preds = %65
  %75 = atomicrmw volatile add ptr %69, i32 -1 acq_rel, align 4
  br label %76

76:                                               ; preds = %74, %71
  %.0.i.i.i.i.i.i.i.i.i11 = phi i32 [ %72, %71 ], [ %75, %74 ]
  %77 = icmp eq i32 %.0.i.i.i.i.i.i.i.i.i11, 1
  br i1 %77, label %_ZNSt16_Sp_counted_baseILN9__gnu_cxx12_Lock_policyE2EE24_M_release_last_use_coldEv.exit.sink.split.i.i.i.i.i.i.i12, label %_ZN4llvm22VarStreamArrayIteratorINS_8codeview8CVRecordINS1_10SymbolKindEEENS_23VarStreamArrayExtractorIS4_EEED2Ev.exit13

_ZNSt16_Sp_counted_baseILN9__gnu_cxx12_Lock_policyE2EE24_M_release_last_use_coldEv.exit.sink.split.i.i.i.i.i.i.i12: ; preds = %76, %52
  %78 = load ptr, ptr %46, align 8
  %79 = getelementptr inbounds i8, ptr %78, i64 24
  %80 = load ptr, ptr %79, align 8
  call void %80(ptr noundef nonnull align 8 dereferenceable(16) %46) #14
  br label %_ZN4llvm22VarStreamArrayIteratorINS_8codeview8CVRecordINS1_10SymbolKindEEENS_23VarStreamArrayExtractorIS4_EEED2Ev.exit13

_ZN4llvm22VarStreamArrayIteratorINS_8codeview8CVRecordINS1_10SymbolKindEEENS_23VarStreamArrayExtractorIS4_EEED2Ev.exit13: ; preds = %_ZN4llvm22VarStreamArrayIteratorINS_8codeview8CVRecordINS1_10SymbolKindEEENS_23VarStreamArrayExtractorIS4_EEED2Ev.exit, %63, %76, %_ZNSt16_Sp_counted_baseILN9__gnu_cxx12_Lock_policyE2EE24_M_release_last_use_coldEv.exit.sink.split.i.i.i.i.i.i.i12
  %81 = trunc i64 %.sroa.1.0.copyload to i32
  %82 = add i32 %44, %81
  call void @_ZNK4llvm14VarStreamArrayINS_8codeview8CVRecordINS1_10SymbolKindEEENS_23VarStreamArrayExtractorIS4_EEE9substreamEjj(ptr dead_on_unwind writable sret(%"class.llvm::VarStreamArray") align 8 %0, ptr noundef nonnull align 8 dereferenceable(56) %1, i32 noundef %2, i32 noundef %82)
  ret void
}